; Function Attrs: nounwind uwtable
define void @restore_old_weights(ptr noundef captures(none) %0, i32 noundef %1, ptr noundef %2) local_unnamed_addr #2 {
  %4 = getelementptr inbounds nuw i8, ptr %0, i64 16
  %5 = load ptr, ptr %4, align 8, !tbaa !18
  tail call void @free(ptr noundef %5) #20
  store ptr null, ptr %4, align 8, !tbaa !18
  %.not = icmp ne ptr %2, null
  %6 = icmp sgt i32 %1, 0
  %or.cond = and i1 %.not, %6
  br i1 %or.cond, label %.lr.ph.preheader, label %.loopexit

.lr.ph.preheader:                                 ; preds = %3
  %wide.trip.count = zext nneg i32 %1 to i64
  br label %.lr.ph

.lr.ph:                                           ; preds = %.lr.ph.preheader, %.lr.ph
  %indvars.iv = phi i64 [ 0, %.lr.ph.preheader ], [ %indvars.iv.next, %.lr.ph ]
  %.01113 = phi ptr [ %2, %.lr.ph.preheader ], [ %10, %.lr.ph ]
  %7 = getelementptr inbounds nuw %struct.vtx_data, ptr %0, i64 %indvars.iv
  %8 = getelementptr inbounds nuw i8, ptr %7, i64 16
  store ptr %.01113, ptr %8, align 8, !tbaa !18
  %9 = load i64, ptr %7, align 8, !tbaa !3
  %10 = getelementptr inbounds nuw float, ptr %.01113, i64 %9
  %indvars.iv.next = add nuw nsw i64 %indvars.iv, 1
  %exitcond.not = icmp eq i64 %indvars.iv.next, %wide.trip.count
  br i1 %exitcond.not, label %.loopexit, label %.lr.ph, !llvm.loop !26

.loopexit:                                        ; preds = %.lr.ph, %3
  ret void
}